target datalayout = "e-m:e-p270:32:32-p271:32:32-p272:64:64-i64:64-i128:128-f80:128-n8:16:32:64-S128"
target triple = "x86_64-pc-linux-gnu"

%struct.cl_fmap = type { ptr, ptr, ptr, i64, i64, i64, i64, i8, i8, i8, i64, i64, i64, i64, ptr, ptr, ptr, ptr, ptr, ptr, ptr, i8, [16 x i8], i8, [20 x i8], i8, [32 x i8], ptr, ptr }

@.str.20 = private unnamed_addr constant [52 x i8] c"fmap_set_hash: Attempted to set hash for NULL fmap\0A\00", align 1
@.str.21 = private unnamed_addr constant [46 x i8] c"fmap_set_hash: Attempted to set hash to NULL\0A\00", align 1
@.str.22 = private unnamed_addr constant [41 x i8] c"fmap_set_hash: Unsupported hash type %u\0A\00", align 1

; Function Attrs: nounwind uwtable
define i32 @fmap_set_hash(ptr noundef %0, ptr noundef %1, i32 noundef %2) #0 {
  %4 = alloca ptr, align 8
  %5 = alloca ptr, align 8
  %6 = alloca i32, align 4
  %7 = alloca i32, align 4
  store ptr %0, ptr %4, align 8
  store ptr %1, ptr %5, align 8
  store i32 %2, ptr %6, align 4
  store i32 0, ptr %7, align 4
  %8 = load ptr, ptr %4, align 8
  %9 = icmp eq ptr null, %8
  br i1 %9, label %10, label %11

10:                                               ; preds = %3
  call void (ptr, ...) @cli_errmsg(ptr noundef @.str.20)
  store i32 3, ptr %7, align 4
  br label %41

11:                                               ; preds = %3
  %12 = load ptr, ptr %5, align 8
  %13 = icmp eq ptr null, %12
  br i1 %13, label %14, label %15

14:                                               ; preds = %11
  call void (ptr, ...) @cli_errmsg(ptr noundef @.str.21)
  store i32 3, ptr %7, align 4
  br label %41

15:                                               ; preds = %11
  %16 = load i32, ptr %6, align 4
  switch i32 %16, label %38 [
    i32 0, label %17
    i32 1, label %24
    i32 2, label %31
  ]

17:                                               ; preds = %15
  %18 = load ptr, ptr %4, align 8
  %19 = getelementptr inbounds %struct.cl_fmap, ptr %18, i32 0, i32 22
  %20 = getelementptr inbounds [16 x i8], ptr %19, i64 0, i64 0
  %21 = load ptr, ptr %5, align 8
  call void @llvm.memcpy.p0.p0.i64(ptr align 1 %20, ptr align 1 %21, i64 16, i1 false)
  %22 = load ptr, ptr %4, align 8
  %23 = getelementptr inbounds %struct.cl_fmap, ptr %22, i32 0, i32 21
  store i8 1, ptr %23, align 8
  br label %40

24:                                               ; preds = %15
  %25 = load ptr, ptr %4, align 8
  %26 = getelementptr inbounds %struct.cl_fmap, ptr %25, i32 0, i32 24
  %27 = getelementptr inbounds [20 x i8], ptr %26, i64 0, i64 0
  %28 = load ptr, ptr %5, align 8
  call void @llvm.memcpy.p0.p0.i64(ptr align 2 %27, ptr align 1 %28, i64 20, i1 false)
  %29 = load ptr, ptr %4, align 8
  %30 = getelementptr inbounds %struct.cl_fmap, ptr %29, i32 0, i32 23
  store i8 1, ptr %30, align 1
  br label %40

31:                                               ; preds = %15
  %32 = load ptr, ptr %4, align 8
  %33 = getelementptr inbounds %struct.cl_fmap, ptr %32, i32 0, i32 26
  %34 = getelementptr inbounds [32 x i8], ptr %33, i64 0, i64 0
  %35 = load ptr, ptr %5, align 8
  call void @llvm.memcpy.p0.p0.i64(ptr align 1 %34, ptr align 1 %35, i64 32, i1 false)
  %36 = load ptr, ptr %4, align 8
  %37 = getelementptr inbounds %struct.cl_fmap, ptr %36, i32 0, i32 25
  store i8 1, ptr %37, align 2
  br label %40

38:                                               ; preds = %15
  %39 = load i32, ptr %6, align 4
  call void (ptr, ...) @cli_errmsg(ptr noundef @.str.22, i32 noundef %39)
  store i32 3, ptr %7, align 4
  br label %41

40:                                               ; preds = %31, %24, %17
  br label %41

41:                                               ; preds = %40, %38, %14, %10
  %42 = load i32, ptr %7, align 4
  ret i32 %42
}