; Function Attrs: nounwind uwtable
define noundef i32 @fmap_set_hash(ptr noundef writeonly %0, ptr noundef readonly %1, i32 noundef %2) local_unnamed_addr #0 {
  %4 = icmp eq ptr %0, null
  br i1 %4, label %5, label %6

5:                                                ; preds = %3
  tail call void (ptr, ...) @cli_errmsg(ptr noundef nonnull @.str.20) #18
  br label %20

6:                                                ; preds = %3
  %7 = icmp eq ptr %1, null
  br i1 %7, label %8, label %9

8:                                                ; preds = %6
  tail call void (ptr, ...) @cli_errmsg(ptr noundef nonnull @.str.21) #18
  br label %20

9:                                                ; preds = %6
  switch i32 %2, label %19 [
    i32 0, label %10
    i32 1, label %13
    i32 2, label %16
  ]

10:                                               ; preds = %9
  %11 = getelementptr inbounds i8, ptr %0, i64 153
  tail call void @llvm.memcpy.p0.p0.i64(ptr noundef nonnull align 1 dereferenceable(16) %11, ptr noundef nonnull align 1 dereferenceable(16) %1, i64 16, i1 false)
  %12 = getelementptr inbounds i8, ptr %0, i64 152
  store i8 1, ptr %12, align 8
  br label %20

13:                                               ; preds = %9
  %14 = getelementptr inbounds i8, ptr %0, i64 170
  tail call void @llvm.memcpy.p0.p0.i64(ptr noundef nonnull align 2 dereferenceable(20) %14, ptr noundef nonnull align 1 dereferenceable(20) %1, i64 20, i1 false)
  %15 = getelementptr inbounds i8, ptr %0, i64 169
  store i8 1, ptr %15, align 1
  br label %20

16:                                               ; preds = %9
  %17 = getelementptr inbounds i8, ptr %0, i64 191
  tail call void @llvm.memcpy.p0.p0.i64(ptr noundef nonnull align 1 dereferenceable(32) %17, ptr noundef nonnull align 1 dereferenceable(32) %1, i64 32, i1 false)
  %18 = getelementptr inbounds i8, ptr %0, i64 190
  store i8 1, ptr %18, align 2
  br label %20

19:                                               ; preds = %9
  tail call void (ptr, ...) @cli_errmsg(ptr noundef nonnull @.str.22, i32 noundef %2) #18
  br label %20

20:                                               ; preds = %10, %13, %16, %19, %8, %5
  %.0 = phi i32 [ 3, %5 ], [ 3, %8 ], [ 3, %19 ], [ 0, %16 ], [ 0, %13 ], [ 0, %10 ]
  ret i32 %.0
}